target datalayout = "e-m:e-p270:32:32-p271:32:32-p272:64:64-i64:64-i128:128-f80:128-n8:16:32:64-S128"
target triple = "x86_64-pc-linux-gnu"

%struct.job_info = type { ptr, i64, ptr, ptr, i32, ptr, i32, i32, i32, ptr, i32, ptr, i16, ptr, i64, i16, ptr, ptr, ptr, ptr, ptr, ptr, ptr, ptr, i16, i16, i16, double, i16, i32, i32, i32, ptr, ptr, i64, i32, ptr, i32, i64, i64, ptr, ptr, i32, ptr, ptr, ptr, ptr, i64, ptr, i64, ptr, i32, ptr, ptr, i32, i32, ptr, i32, i32, ptr, ptr, i32, i64, ptr, i16, ptr, i32, i32, ptr, ptr, ptr, ptr, ptr, i32, ptr, i16, i16, i16, i16, i16, i32, i32, i32, i16, ptr, ptr, i64, i16, i32, i64, i64, i64, i32, ptr, ptr, i32, ptr, i8, ptr, ptr, i32, i16, i64, i16, ptr, ptr, ptr, ptr, i16, i32, i16, i16, i64, i16, ptr, i32, ptr, ptr, ptr, i16, i64, i64, ptr, i32, i32, i16, ptr, ptr, ptr, ptr, ptr, ptr, ptr, ptr, i32, ptr, i32, ptr, ptr }
%struct.squeue_job_rec = type { i32, ptr, ptr, i32 }

@reverse_order = internal global i8 0, align 1

; Function Attrs: inlinehint nounwind uwtable
define internal i32 @_diff_uint32(i32 noundef %0, i32 noundef %1) #6 {
  %3 = alloca i32, align 4
  %4 = alloca i32, align 4
  %5 = alloca i32, align 4
  store i32 %0, ptr %4, align 4
  store i32 %1, ptr %5, align 4
  %6 = load i32, ptr %4, align 4
  %7 = load i32, ptr %5, align 4
  %8 = icmp ugt i32 %6, %7
  br i1 %8, label %9, label %10

9:                                                ; preds = %2
  store i32 1, ptr %3, align 4
  br label %16

10:                                               ; preds = %2
  %11 = load i32, ptr %4, align 4
  %12 = load i32, ptr %5, align 4
  %13 = icmp ult i32 %11, %12
  br i1 %13, label %14, label %15

14:                                               ; preds = %10
  store i32 -1, ptr %3, align 4
  br label %16

15:                                               ; preds = %10
  store i32 0, ptr %3, align 4
  br label %16

16:                                               ; preds = %15, %14, %9
  %17 = load i32, ptr %3, align 4
  ret i32 %17
}

; Function Attrs: nounwind uwtable
define internal void @_get_job_info_from_void(ptr noundef %0, ptr noundef %1, ptr noundef %2, ptr noundef %3) #0 {
  %5 = alloca ptr, align 8
  %6 = alloca ptr, align 8
  %7 = alloca ptr, align 8
  %8 = alloca ptr, align 8
  store ptr %0, ptr %5, align 8
  store ptr %1, ptr %6, align 8
  store ptr %2, ptr %7, align 8
  store ptr %3, ptr %8, align 8
  %9 = load ptr, ptr %7, align 8
  %10 = load ptr, ptr %9, align 8
  %11 = getelementptr inbounds nuw %struct.squeue_job_rec, ptr %10, i32 0, i32 1
  %12 = load ptr, ptr %11, align 8
  %13 = load ptr, ptr %5, align 8
  store ptr %12, ptr %13, align 8
  %14 = load ptr, ptr %8, align 8
  %15 = load ptr, ptr %14, align 8
  %16 = getelementptr inbounds nuw %struct.squeue_job_rec, ptr %15, i32 0, i32 1
  %17 = load ptr, ptr %16, align 8
  %18 = load ptr, ptr %6, align 8
  store ptr %17, ptr %18, align 8
  ret void
}

; Function Attrs: nounwind uwtable
define internal i32 @_sort_job_by_id(ptr noundef %0, ptr noundef %1) #0 {
  %3 = alloca ptr, align 8
  %4 = alloca ptr, align 8
  %5 = alloca i32, align 4
  %6 = alloca ptr, align 8
  %7 = alloca ptr, align 8
  %8 = alloca i32, align 4
  %9 = alloca i32, align 4
  store ptr %0, ptr %3, align 8
  store ptr %1, ptr %4, align 8
  call void @llvm.lifetime.start.p0(i64 4, ptr %5) #8
  call void @llvm.lifetime.start.p0(i64 8, ptr %6) #8
  call void @llvm.lifetime.start.p0(i64 8, ptr %7) #8
  call void @llvm.lifetime.start.p0(i64 4, ptr %8) #8
  call void @llvm.lifetime.start.p0(i64 4, ptr %9) #8
  %10 = load ptr, ptr %3, align 8
  %11 = load ptr, ptr %4, align 8
  call void @_get_job_info_from_void(ptr noundef %6, ptr noundef %7, ptr noundef %10, ptr noundef %11)
  %12 = load ptr, ptr %6, align 8
  %13 = getelementptr inbounds nuw %struct.job_info, ptr %12, i32 0, i32 55
  %14 = load i32, ptr %13, align 4
  %15 = icmp ne i32 %14, 0
  br i1 %15, label %16, label %20

16:                                               ; preds = %2
  %17 = load ptr, ptr %6, align 8
  %18 = getelementptr inbounds nuw %struct.job_info, ptr %17, i32 0, i32 55
  %19 = load i32, ptr %18, align 4
  store i32 %19, ptr %8, align 4
  br label %34

20:                                               ; preds = %2
  %21 = load ptr, ptr %6, align 8
  %22 = getelementptr inbounds nuw %struct.job_info, ptr %21, i32 0, i32 7
  %23 = load i32, ptr %22, align 4
  %24 = icmp eq i32 %23, -2
  br i1 %24, label %25, label %29

25:                                               ; preds = %20
  %26 = load ptr, ptr %6, align 8
  %27 = getelementptr inbounds nuw %struct.job_info, ptr %26, i32 0, i32 58
  %28 = load i32, ptr %27, align 4
  store i32 %28, ptr %8, align 4
  br label %33

29:                                               ; preds = %20
  %30 = load ptr, ptr %6, align 8
  %31 = getelementptr inbounds nuw %struct.job_info, ptr %30, i32 0, i32 6
  %32 = load i32, ptr %31, align 8
  store i32 %32, ptr %8, align 4
  br label %33

33:                                               ; preds = %29, %25
  br label %34

34:                                               ; preds = %33, %16
  %35 = load ptr, ptr %7, align 8
  %36 = getelementptr inbounds nuw %struct.job_info, ptr %35, i32 0, i32 55
  %37 = load i32, ptr %36, align 4
  %38 = icmp ne i32 %37, 0
  br i1 %38, label %39, label %43

39:                                               ; preds = %34
  %40 = load ptr, ptr %7, align 8
  %41 = getelementptr inbounds nuw %struct.job_info, ptr %40, i32 0, i32 55
  %42 = load i32, ptr %41, align 4
  store i32 %42, ptr %9, align 4
  br label %57

43:                                               ; preds = %34
  %44 = load ptr, ptr %7, align 8
  %45 = getelementptr inbounds nuw %struct.job_info, ptr %44, i32 0, i32 7
  %46 = load i32, ptr %45, align 4
  %47 = icmp eq i32 %46, -2
  br i1 %47, label %48, label %52

48:                                               ; preds = %43
  %49 = load ptr, ptr %7, align 8
  %50 = getelementptr inbounds nuw %struct.job_info, ptr %49, i32 0, i32 58
  %51 = load i32, ptr %50, align 4
  store i32 %51, ptr %9, align 4
  br label %56

52:                                               ; preds = %43
  %53 = load ptr, ptr %7, align 8
  %54 = getelementptr inbounds nuw %struct.job_info, ptr %53, i32 0, i32 6
  %55 = load i32, ptr %54, align 8
  store i32 %55, ptr %9, align 4
  br label %56

56:                                               ; preds = %52, %48
  br label %57

57:                                               ; preds = %56, %39
  %58 = load i32, ptr %8, align 4
  %59 = load i32, ptr %9, align 4
  %60 = icmp eq i32 %58, %59
  br i1 %60, label %61, label %88

61:                                               ; preds = %57
  %62 = load ptr, ptr %6, align 8
  %63 = getelementptr inbounds nuw %struct.job_info, ptr %62, i32 0, i32 55
  %64 = load i32, ptr %63, align 4
  %65 = icmp ne i32 %64, 0
  br i1 %65, label %66, label %70

66:                                               ; preds = %61
  %67 = load ptr, ptr %6, align 8
  %68 = getelementptr inbounds nuw %struct.job_info, ptr %67, i32 0, i32 57
  %69 = load i32, ptr %68, align 8
  store i32 %69, ptr %8, align 4
  br label %74

70:                                               ; preds = %61
  %71 = load ptr, ptr %6, align 8
  %72 = getelementptr inbounds nuw %struct.job_info, ptr %71, i32 0, i32 7
  %73 = load i32, ptr %72, align 4
  store i32 %73, ptr %8, align 4
  br label %74

74:                                               ; preds = %70, %66
  %75 = load ptr, ptr %7, align 8
  %76 = getelementptr inbounds nuw %struct.job_info, ptr %75, i32 0, i32 55
  %77 = load i32, ptr %76, align 4
  %78 = icmp ne i32 %77, 0
  br i1 %78, label %79, label %83

79:                                               ; preds = %74
  %80 = load ptr, ptr %7, align 8
  %81 = getelementptr inbounds nuw %struct.job_info, ptr %80, i32 0, i32 57
  %82 = load i32, ptr %81, align 8
  store i32 %82, ptr %9, align 4
  br label %87

83:                                               ; preds = %74
  %84 = load ptr, ptr %7, align 8
  %85 = getelementptr inbounds nuw %struct.job_info, ptr %84, i32 0, i32 7
  %86 = load i32, ptr %85, align 4
  store i32 %86, ptr %9, align 4
  br label %87

87:                                               ; preds = %83, %79
  br label %88

88:                                               ; preds = %87, %57
  %89 = load i32, ptr %8, align 4
  %90 = load i32, ptr %9, align 4
  %91 = call i32 @_diff_uint32(i32 noundef %89, i32 noundef %90)
  store i32 %91, ptr %5, align 4
  %92 = load i8, ptr @reverse_order, align 1, !range !11, !noundef !12
  %93 = trunc i8 %92 to i1
  br i1 %93, label %94, label %97

94:                                               ; preds = %88
  %95 = load i32, ptr %5, align 4
  %96 = sub nsw i32 0, %95
  store i32 %96, ptr %5, align 4
  br label %97

97:                                               ; preds = %94, %88
  %98 = load i32, ptr %5, align 4
  call void @llvm.lifetime.end.p0(i64 4, ptr %9) #8
  call void @llvm.lifetime.end.p0(i64 4, ptr %8) #8
  call void @llvm.lifetime.end.p0(i64 8, ptr %7) #8
  call void @llvm.lifetime.end.p0(i64 8, ptr %6) #8
  call void @llvm.lifetime.end.p0(i64 4, ptr %5) #8
  ret i32 %98
}