; Function Attrs: mustprogress nofree norecurse nosync nounwind willreturn memory(read, inaccessiblemem: none) uwtable
define internal range(i32 -1, 2) i32 @_sort_job_by_id(ptr noundef readonly captures(none) %0, ptr noundef readonly captures(none) %1) #5 {
  %.val = load ptr, ptr %0, align 8
  %3 = getelementptr i8, ptr %.val, i64 8
  %.val.val = load ptr, ptr %3, align 8
  %4 = load ptr, ptr %1, align 8
  %5 = getelementptr inbounds nuw i8, ptr %4, i64 8
  %6 = load ptr, ptr %5, align 8
  %7 = getelementptr inbounds nuw i8, ptr %.val.val, i64 396
  %8 = load i32, ptr %7, align 4
  %.not = icmp eq i32 %8, 0
  br i1 %.not, label %9, label %19

9:                                                ; preds = %2
  %10 = getelementptr inbounds nuw i8, ptr %.val.val, i64 52
  %11 = load i32, ptr %10, align 4
  %12 = icmp eq i32 %11, -2
  br i1 %12, label %13, label %16

13:                                               ; preds = %9
  %14 = getelementptr inbounds nuw i8, ptr %.val.val, i64 412
  %15 = load i32, ptr %14, align 4
  br label %19

16:                                               ; preds = %9
  %17 = getelementptr inbounds nuw i8, ptr %.val.val, i64 48
  %18 = load i32, ptr %17, align 8
  br label %19

19:                                               ; preds = %2, %13, %16
  %.07 = phi i32 [ %15, %13 ], [ %18, %16 ], [ %8, %2 ]
  %20 = getelementptr inbounds nuw i8, ptr %6, i64 396
  %21 = load i32, ptr %20, align 4
  %.not12 = icmp eq i32 %21, 0
  br i1 %.not12, label %22, label %.thread

22:                                               ; preds = %19
  %23 = getelementptr inbounds nuw i8, ptr %6, i64 52
  %24 = load i32, ptr %23, align 4
  %25 = icmp eq i32 %24, -2
  %.0.in.v = select i1 %25, i64 412, i64 48
  %.0.in = getelementptr inbounds nuw i8, ptr %6, i64 %.0.in.v
  %.0 = load i32, ptr %.0.in, align 4
  %26 = icmp eq i32 %.07, %.0
  br i1 %26, label %30, label %31

.thread:                                          ; preds = %19
  %27 = icmp eq i32 %.07, %21
  br i1 %27, label %.thread20, label %31

.thread20:                                        ; preds = %.thread
  %.2.in21.v = select i1 %.not, i64 52, i64 408
  %.2.in21 = getelementptr inbounds nuw i8, ptr %.val.val, i64 %.2.in21.v
  %.222 = load i32, ptr %.2.in21, align 4
  %28 = getelementptr inbounds nuw i8, ptr %6, i64 408
  %29 = load i32, ptr %28, align 8
  br label %31

30:                                               ; preds = %22
  %.2.in.v = select i1 %.not, i64 52, i64 408
  %.2.in = getelementptr inbounds nuw i8, ptr %.val.val, i64 %.2.in.v
  %.2 = load i32, ptr %.2.in, align 4
  br label %31

31:                                               ; preds = %.thread, %.thread20, %30, %22
  %.18 = phi i32 [ %.222, %.thread20 ], [ %.2, %30 ], [ %.07, %22 ], [ %.07, %.thread ]
  %.1 = phi i32 [ %29, %.thread20 ], [ %24, %30 ], [ %.0, %22 ], [ %21, %.thread ]
  %.0.i = tail call range(i32 -1, 2) i32 @llvm.ucmp.i32.i32(i32 %.18, i32 %.1)
  %.b15 = load i1, ptr @reverse_order, align 1
  %32 = sub nsw i32 0, %.0.i
  %spec.select = select i1 %.b15, i32 %32, i32 %.0.i
  ret i32 %spec.select
}